target datalayout = "e-m:e-p270:32:32-p271:32:32-p272:64:64-i64:64-i128:128-f80:128-n8:16:32:64-S128"
target triple = "x86_64-pc-linux-gnu"

%struct.H5B2_test_ctx_t = type { i8 }

@H5B2_init_g = external global i8, align 1
@H5_libterm_g = external global i8, align 1

; Function Attrs: nounwind uwtable
define internal i32 @H5B2__test_encode(ptr noundef %0, ptr noundef %1, ptr noundef %2) #0 {
  %4 = alloca ptr, align 8
  %5 = alloca ptr, align 8
  %6 = alloca ptr, align 8
  %7 = alloca ptr, align 8
  %8 = alloca i64, align 8
  %9 = alloca i64, align 8
  %10 = alloca ptr, align 8
  store ptr %0, ptr %4, align 8, !tbaa !23
  store ptr %1, ptr %5, align 8, !tbaa !3
  store ptr %2, ptr %6, align 8, !tbaa !3
  call void @llvm.lifetime.start.p0(i64 8, ptr %7) #6
  %11 = load ptr, ptr %6, align 8, !tbaa !3
  store ptr %11, ptr %7, align 8, !tbaa !13
  %12 = load i8, ptr @H5B2_init_g, align 1, !tbaa !9, !range !11, !noundef !12
  %13 = trunc i8 %12 to i1
  br i1 %13, label %18, label %14

14:                                               ; preds = %3
  %15 = load i8, ptr @H5_libterm_g, align 1, !tbaa !9, !range !11, !noundef !12
  %16 = trunc i8 %15 to i1
  %17 = xor i1 %16, true
  br label %18

18:                                               ; preds = %14, %3
  %19 = phi i1 [ true, %3 ], [ %17, %14 ]
  %20 = xor i1 %19, true
  %21 = xor i1 %20, true
  %22 = zext i1 %21 to i32
  %23 = sext i32 %22 to i64
  %24 = call i64 @llvm.expect.i64(i64 %23, i64 1)
  %25 = icmp ne i64 %24, 0
  br i1 %25, label %26, label %126

26:                                               ; preds = %18
  br label %27

27:                                               ; preds = %26
  %28 = load ptr, ptr %7, align 8, !tbaa !13
  %29 = getelementptr inbounds nuw %struct.H5B2_test_ctx_t, ptr %28, i32 0, i32 0
  %30 = load i8, ptr %29, align 1, !tbaa !17
  %31 = zext i8 %30 to i32
  switch i32 %31, label %122 [
    i32 4, label %32
    i32 8, label %67
    i32 2, label %101
  ]

32:                                               ; preds = %27
  br label %33

33:                                               ; preds = %32
  %34 = load ptr, ptr %5, align 8, !tbaa !3
  %35 = load i64, ptr %34, align 8, !tbaa !15
  %36 = and i64 %35, 255
  %37 = trunc i64 %36 to i8
  %38 = load ptr, ptr %4, align 8, !tbaa !23
  store i8 %37, ptr %38, align 1, !tbaa !25
  %39 = load ptr, ptr %4, align 8, !tbaa !23
  %40 = getelementptr inbounds nuw i8, ptr %39, i32 1
  store ptr %40, ptr %4, align 8, !tbaa !23
  %41 = load ptr, ptr %5, align 8, !tbaa !3
  %42 = load i64, ptr %41, align 8, !tbaa !15
  %43 = lshr i64 %42, 8
  %44 = and i64 %43, 255
  %45 = trunc i64 %44 to i8
  %46 = load ptr, ptr %4, align 8, !tbaa !23
  store i8 %45, ptr %46, align 1, !tbaa !25
  %47 = load ptr, ptr %4, align 8, !tbaa !23
  %48 = getelementptr inbounds nuw i8, ptr %47, i32 1
  store ptr %48, ptr %4, align 8, !tbaa !23
  %49 = load ptr, ptr %5, align 8, !tbaa !3
  %50 = load i64, ptr %49, align 8, !tbaa !15
  %51 = lshr i64 %50, 16
  %52 = and i64 %51, 255
  %53 = trunc i64 %52 to i8
  %54 = load ptr, ptr %4, align 8, !tbaa !23
  store i8 %53, ptr %54, align 1, !tbaa !25
  %55 = load ptr, ptr %4, align 8, !tbaa !23
  %56 = getelementptr inbounds nuw i8, ptr %55, i32 1
  store ptr %56, ptr %4, align 8, !tbaa !23
  %57 = load ptr, ptr %5, align 8, !tbaa !3
  %58 = load i64, ptr %57, align 8, !tbaa !15
  %59 = lshr i64 %58, 24
  %60 = and i64 %59, 255
  %61 = trunc i64 %60 to i8
  %62 = load ptr, ptr %4, align 8, !tbaa !23
  store i8 %61, ptr %62, align 1, !tbaa !25
  %63 = load ptr, ptr %4, align 8, !tbaa !23
  %64 = getelementptr inbounds nuw i8, ptr %63, i32 1
  store ptr %64, ptr %4, align 8, !tbaa !23
  br label %65

65:                                               ; preds = %33
  br label %66

66:                                               ; preds = %65
  br label %123

67:                                               ; preds = %27
  br label %68

68:                                               ; preds = %67
  call void @llvm.lifetime.start.p0(i64 8, ptr %8) #6
  %69 = load ptr, ptr %5, align 8, !tbaa !3
  %70 = load i64, ptr %69, align 8, !tbaa !15
  store i64 %70, ptr %8, align 8, !tbaa !15
  call void @llvm.lifetime.start.p0(i64 8, ptr %9) #6
  call void @llvm.lifetime.start.p0(i64 8, ptr %10) #6
  %71 = load ptr, ptr %4, align 8, !tbaa !23
  store ptr %71, ptr %10, align 8, !tbaa !23
  store i64 0, ptr %9, align 8, !tbaa !15
  br label %72

72:                                               ; preds = %81, %68
  %73 = load i64, ptr %9, align 8, !tbaa !15
  %74 = icmp ult i64 %73, 8
  br i1 %74, label %75, label %86

75:                                               ; preds = %72
  %76 = load i64, ptr %8, align 8, !tbaa !15
  %77 = and i64 %76, 255
  %78 = trunc i64 %77 to i8
  %79 = load ptr, ptr %10, align 8, !tbaa !23
  %80 = getelementptr inbounds nuw i8, ptr %79, i32 1
  store ptr %80, ptr %10, align 8, !tbaa !23
  store i8 %78, ptr %79, align 1, !tbaa !25
  br label %81

81:                                               ; preds = %75
  %82 = load i64, ptr %9, align 8, !tbaa !15
  %83 = add i64 %82, 1
  store i64 %83, ptr %9, align 8, !tbaa !15
  %84 = load i64, ptr %8, align 8, !tbaa !15
  %85 = lshr i64 %84, 8
  store i64 %85, ptr %8, align 8, !tbaa !15
  br label %72, !llvm.loop !26

86:                                               ; preds = %72
  br label %87

87:                                               ; preds = %93, %86
  %88 = load i64, ptr %9, align 8, !tbaa !15
  %89 = icmp ult i64 %88, 8
  br i1 %89, label %90, label %96

90:                                               ; preds = %87
  %91 = load ptr, ptr %10, align 8, !tbaa !23
  %92 = getelementptr inbounds nuw i8, ptr %91, i32 1
  store ptr %92, ptr %10, align 8, !tbaa !23
  store i8 0, ptr %91, align 1, !tbaa !25
  br label %93

93:                                               ; preds = %90
  %94 = load i64, ptr %9, align 8, !tbaa !15
  %95 = add i64 %94, 1
  store i64 %95, ptr %9, align 8, !tbaa !15
  br label %87, !llvm.loop !28

96:                                               ; preds = %87
  %97 = load ptr, ptr %4, align 8, !tbaa !23
  %98 = getelementptr inbounds i8, ptr %97, i64 8
  store ptr %98, ptr %4, align 8, !tbaa !23
  call void @llvm.lifetime.end.p0(i64 8, ptr %10) #6
  call void @llvm.lifetime.end.p0(i64 8, ptr %9) #6
  call void @llvm.lifetime.end.p0(i64 8, ptr %8) #6
  br label %99

99:                                               ; preds = %96
  br label %100

100:                                              ; preds = %99
  br label %123

101:                                              ; preds = %27
  br label %102

102:                                              ; preds = %101
  %103 = load ptr, ptr %5, align 8, !tbaa !3
  %104 = load i64, ptr %103, align 8, !tbaa !15
  %105 = trunc i64 %104 to i32
  %106 = and i32 %105, 255
  %107 = trunc i32 %106 to i8
  %108 = load ptr, ptr %4, align 8, !tbaa !23
  store i8 %107, ptr %108, align 1, !tbaa !25
  %109 = load ptr, ptr %4, align 8, !tbaa !23
  %110 = getelementptr inbounds nuw i8, ptr %109, i32 1
  store ptr %110, ptr %4, align 8, !tbaa !23
  %111 = load ptr, ptr %5, align 8, !tbaa !3
  %112 = load i64, ptr %111, align 8, !tbaa !15
  %113 = trunc i64 %112 to i32
  %114 = lshr i32 %113, 8
  %115 = and i32 %114, 255
  %116 = trunc i32 %115 to i8
  %117 = load ptr, ptr %4, align 8, !tbaa !23
  store i8 %116, ptr %117, align 1, !tbaa !25
  %118 = load ptr, ptr %4, align 8, !tbaa !23
  %119 = getelementptr inbounds nuw i8, ptr %118, i32 1
  store ptr %119, ptr %4, align 8, !tbaa !23
  br label %120

120:                                              ; preds = %102
  br label %121

121:                                              ; preds = %120
  br label %123

122:                                              ; preds = %27
  br label %123

123:                                              ; preds = %122, %121, %100, %66
  br label %124

124:                                              ; preds = %123
  br label %125

125:                                              ; preds = %124
  br label %126

126:                                              ; preds = %125, %18
  call void @llvm.lifetime.end.p0(i64 8, ptr %7) #6
  ret i32 0
}