; Function Attrs: nofree norecurse nosync nounwind memory(read, argmem: readwrite, inaccessiblemem: none) uwtable
define internal noundef i32 @H5B2__test_encode(ptr noundef writeonly captures(none) %0, ptr noundef readonly captures(none) %1, ptr noundef readonly captures(none) %2) #2 {
  %4 = load i8, ptr @H5B2_init_g, align 1, !tbaa !3, !range !7, !noundef !8
  %5 = trunc nuw i8 %4 to i1
  %6 = load i8, ptr @H5_libterm_g, align 1, !range !7
  %7 = trunc nuw i8 %6 to i1
  %8 = xor i1 %7, true
  %9 = select i1 %5, i1 true, i1 %8
  br i1 %9, label %10, label %.loopexit, !prof !9

10:                                               ; preds = %3
  %11 = load i8, ptr %2, align 1, !tbaa !12
  switch i8 %11, label %.loopexit [
    i8 4, label %12
    i8 8, label %23
    i8 2, label %30
  ]

12:                                               ; preds = %10
  %13 = load i64, ptr %1, align 8, !tbaa !10
  %14 = trunc i64 %13 to i8
  store i8 %14, ptr %0, align 1, !tbaa !16
  %15 = getelementptr inbounds nuw i8, ptr %0, i64 1
  %16 = load i64, ptr %1, align 8, !tbaa !10
  %17 = lshr i64 %16, 8
  %18 = trunc i64 %17 to i8
  store i8 %18, ptr %15, align 1, !tbaa !16
  %19 = getelementptr inbounds nuw i8, ptr %0, i64 2
  %20 = load i64, ptr %1, align 8, !tbaa !10
  %21 = lshr i64 %20, 16
  %22 = trunc i64 %21 to i8
  store i8 %22, ptr %19, align 1, !tbaa !16
  br label %.loopexit.sink.split

23:                                               ; preds = %10
  %24 = load i64, ptr %1, align 8, !tbaa !10
  br label %25

25:                                               ; preds = %23, %25
  %.035 = phi ptr [ %0, %23 ], [ %27, %25 ]
  %.03034 = phi i64 [ 0, %23 ], [ %28, %25 ]
  %.03233 = phi i64 [ %24, %23 ], [ %29, %25 ]
  %26 = trunc i64 %.03233 to i8
  %27 = getelementptr inbounds nuw i8, ptr %.035, i64 1
  store i8 %26, ptr %.035, align 1, !tbaa !16
  %28 = add nuw nsw i64 %.03034, 1
  %29 = lshr i64 %.03233, 8
  %exitcond.not = icmp eq i64 %28, 8
  br i1 %exitcond.not, label %.loopexit, label %25, !llvm.loop !17

30:                                               ; preds = %10
  %31 = load i64, ptr %1, align 8, !tbaa !10
  %32 = trunc i64 %31 to i8
  store i8 %32, ptr %0, align 1, !tbaa !16
  br label %.loopexit.sink.split

.loopexit.sink.split:                             ; preds = %30, %12
  %.sink = phi i64 [ 3, %12 ], [ 1, %30 ]
  %.sink38 = phi i64 [ 24, %12 ], [ 8, %30 ]
  %33 = getelementptr inbounds nuw i8, ptr %0, i64 %.sink
  %34 = load i64, ptr %1, align 8, !tbaa !10
  %35 = lshr i64 %34, %.sink38
  %36 = trunc i64 %35 to i8
  store i8 %36, ptr %33, align 1, !tbaa !16
  br label %.loopexit

.loopexit:                                        ; preds = %25, %.loopexit.sink.split, %10, %3
  ret i32 0
}